; Function Attrs: mustprogress uwtable
define hidden noundef zeroext i1 @_ZNK4cvc58internal6theory5arith6linear18ConstraintDatabase10hasLiteralENS0_12NodeTemplateILb0EEE(ptr noundef nonnull align 8 dereferenceable(488) %this, ptr nocapture noundef readonly %literal) local_unnamed_addr #4 align 2 personality ptr @__gxx_personality_v0 {
entry:
  %agg.tmp = alloca %"class.cvc5::internal::NodeTemplate.0", align 8
  %0 = load ptr, ptr %literal, align 8
  store ptr %0, ptr %agg.tmp, align 8
  %call = call noundef ptr @_ZNK4cvc58internal6theory5arith6linear18ConstraintDatabase6lookupENS0_12NodeTemplateILb0EEE(ptr noundef nonnull align 8 dereferenceable(488) %this, ptr noundef nonnull %agg.tmp)
  %cmp = icmp ne ptr %call, null
  ret i1 %cmp
}